; Function Attrs: nounwind uwtable
define zeroext i8 @l_Std_Internal_Parsec_ByteArray_instInputIteratorUInt8Nat___lambda__3(ptr noundef readonly captures(none) %0) local_unnamed_addr #0 {
  %2 = getelementptr inbounds nuw i8, ptr %0, i64 8
  %3 = load ptr, ptr %2, align 8, !tbaa !4
  %4 = getelementptr inbounds nuw i8, ptr %0, i64 16
  %5 = load ptr, ptr %4, align 8, !tbaa !4
  %6 = getelementptr i8, ptr %3, i64 8
  %.val = load i64, ptr %6, align 8, !tbaa !13
  %7 = shl i64 %.val, 1
  %8 = or disjoint i64 %7, 1
  %9 = inttoptr i64 %8 to ptr
  %10 = ptrtoint ptr %5 to i64
  %11 = and i64 %10, 1
  %.not = icmp eq i64 %11, 0
  br i1 %.not, label %.critedge.i, label %12, !prof !12

12:                                               ; preds = %1
  %13 = icmp ult ptr %5, %9
  br label %lean_dec.exit

.critedge.i:                                      ; preds = %1
  %14 = tail call zeroext i1 @lean_nat_big_lt(ptr noundef %5, ptr noundef nonnull %9) #6
  br label %lean_dec.exit

lean_dec.exit:                                    ; preds = %.critedge.i, %12
  %.0.i = phi i1 [ %13, %12 ], [ %14, %.critedge.i ]
  %15 = lshr i64 %10, 1
  %16 = getelementptr inbounds nuw i8, ptr %3, i64 24
  %17 = getelementptr inbounds nuw i8, ptr %16, i64 %15
  %.0.in = select i1 %.0.i, ptr %17, ptr @l_Std_Internal_Parsec_ByteArray_instInputIteratorUInt8Nat___lambda__3___closed__1
  %.0 = load i8, ptr %.0.in, align 1, !tbaa !15
  ret i8 %.0
}